target datalayout = "e-m:e-p270:32:32-p271:32:32-p272:64:64-i64:64-i128:128-f80:128-n8:16:32:64-S128"
target triple = "x86_64-unknown-linux-gnu"

; Function Attrs: mustprogress nounwind uwtable
define internal noundef zeroext i1 @_ZN8facebook5velox4util12_GLOBAL__N_116characterIsDigitEc(i8 noundef signext %c) #0 {
entry:
  %c.addr = alloca i8, align 1
  store i8 %c, ptr %c.addr, align 1
  %0 = load i8, ptr %c.addr, align 1
  %conv = sext i8 %0 to i32
  %cmp = icmp sge i32 %conv, 48
  br i1 %cmp, label %land.rhs, label %land.end

land.rhs:                                         ; preds = %entry
  %1 = load i8, ptr %c.addr, align 1
  %conv1 = sext i8 %1 to i32
  %cmp2 = icmp sle i32 %conv1, 57
  br label %land.end

land.end:                                         ; preds = %land.rhs, %entry
  %2 = phi i1 [ false, %entry ], [ %cmp2, %land.rhs ]
  ret i1 %2
}

; Function Attrs: mustprogress nounwind uwtable
define internal noundef zeroext i1 @_ZN8facebook5velox4util12_GLOBAL__N_116parseDoubleDigitEPKcmRmRi(ptr noundef %buf, i64 noundef %len, ptr noundef nonnull align 8 dereferenceable(8) %pos, ptr noundef nonnull align 4 dereferenceable(4) %result) #0 {
entry:
  %retval = alloca i1, align 1
  %buf.addr = alloca ptr, align 8
  %len.addr = alloca i64, align 8
  %pos.addr = alloca ptr, align 8
  %result.addr = alloca ptr, align 8
  store ptr %buf, ptr %buf.addr, align 8
  store i64 %len, ptr %len.addr, align 8
  store ptr %pos, ptr %pos.addr, align 8
  store ptr %result, ptr %result.addr, align 8
  %0 = load ptr, ptr %pos.addr, align 8
  %1 = load i64, ptr %0, align 8
  %2 = load i64, ptr %len.addr, align 8
  %cmp = icmp ult i64 %1, %2
  br i1 %cmp, label %land.lhs.true, label %if.end11

land.lhs.true:                                    ; preds = %entry
  %3 = load ptr, ptr %buf.addr, align 8
  %4 = load ptr, ptr %pos.addr, align 8
  %5 = load i64, ptr %4, align 8
  %arrayidx = getelementptr inbounds i8, ptr %3, i64 %5
  %6 = load i8, ptr %arrayidx, align 1
  %call = call noundef zeroext i1 @_ZN8facebook5velox4util12_GLOBAL__N_116characterIsDigitEc(i8 noundef signext %6)
  br i1 %call, label %if.then, label %if.end11

if.then:                                          ; preds = %land.lhs.true
  %7 = load ptr, ptr %buf.addr, align 8
  %8 = load ptr, ptr %pos.addr, align 8
  %9 = load i64, ptr %8, align 8
  %inc = add i64 %9, 1
  store i64 %inc, ptr %8, align 8
  %arrayidx1 = getelementptr inbounds i8, ptr %7, i64 %9
  %10 = load i8, ptr %arrayidx1, align 1
  %conv = sext i8 %10 to i32
  %sub = sub nsw i32 %conv, 48
  %11 = load ptr, ptr %result.addr, align 8
  store i32 %sub, ptr %11, align 4
  %12 = load ptr, ptr %pos.addr, align 8
  %13 = load i64, ptr %12, align 8
  %14 = load i64, ptr %len.addr, align 8
  %cmp2 = icmp ult i64 %13, %14
  br i1 %cmp2, label %land.lhs.true3, label %if.end

land.lhs.true3:                                   ; preds = %if.then
  %15 = load ptr, ptr %buf.addr, align 8
  %16 = load ptr, ptr %pos.addr, align 8
  %17 = load i64, ptr %16, align 8
  %arrayidx4 = getelementptr inbounds i8, ptr %15, i64 %17
  %18 = load i8, ptr %arrayidx4, align 1
  %call5 = call noundef zeroext i1 @_ZN8facebook5velox4util12_GLOBAL__N_116characterIsDigitEc(i8 noundef signext %18)
  br i1 %call5, label %if.then6, label %if.end

if.then6:                                         ; preds = %land.lhs.true3
  %19 = load ptr, ptr %buf.addr, align 8
  %20 = load ptr, ptr %pos.addr, align 8
  %21 = load i64, ptr %20, align 8
  %inc7 = add i64 %21, 1
  store i64 %inc7, ptr %20, align 8
  %arrayidx8 = getelementptr inbounds i8, ptr %19, i64 %21
  %22 = load i8, ptr %arrayidx8, align 1
  %conv9 = sext i8 %22 to i32
  %sub10 = sub nsw i32 %conv9, 48
  %23 = load ptr, ptr %result.addr, align 8
  %24 = load i32, ptr %23, align 4
  %mul = mul nsw i32 %24, 10
  %add = add nsw i32 %sub10, %mul
  %25 = load ptr, ptr %result.addr, align 8
  store i32 %add, ptr %25, align 4
  br label %if.end

if.end:                                           ; preds = %if.then6, %land.lhs.true3, %if.then
  store i1 true, ptr %retval, align 1
  br label %return

if.end11:                                         ; preds = %land.lhs.true, %entry
  store i1 false, ptr %retval, align 1
  br label %return

return:                                           ; preds = %if.end11, %if.end
  %26 = load i1, ptr %retval, align 1
  ret i1 %26
}