; Function Attrs: mustprogress nofree norecurse nosync nounwind willreturn memory(argmem: readwrite) uwtable
define internal fastcc noundef zeroext i1 @_ZN8facebook5velox4util12_GLOBAL__N_116parseDoubleDigitEPKcmRmRi(ptr noundef readonly captures(none) %buf, i64 noundef %len, ptr noundef nonnull align 8 captures(none) dereferenceable(8) %pos, ptr noundef nonnull align 4 captures(none) dereferenceable(4) %result) unnamed_addr #6 {
entry:
  %0 = load i64, ptr %pos, align 8
  %cmp = icmp ult i64 %0, %len
  br i1 %cmp, label %land.lhs.true, label %return

land.lhs.true:                                    ; preds = %entry
  %arrayidx = getelementptr inbounds i8, ptr %buf, i64 %0
  %1 = load i8, ptr %arrayidx, align 1
  %2 = add i8 %1, -48
  %3 = icmp ult i8 %2, 10
  br i1 %3, label %if.then, label %return

if.then:                                          ; preds = %land.lhs.true
  %inc = add nuw i64 %0, 1
  store i64 %inc, ptr %pos, align 8
  %4 = load i8, ptr %arrayidx, align 1
  %conv = sext i8 %4 to i32
  %sub = add nsw i32 %conv, -48
  store i32 %sub, ptr %result, align 4
  %5 = load i64, ptr %pos, align 8
  %cmp2 = icmp ult i64 %5, %len
  br i1 %cmp2, label %land.lhs.true3, label %return

land.lhs.true3:                                   ; preds = %if.then
  %arrayidx4 = getelementptr inbounds i8, ptr %buf, i64 %5
  %6 = load i8, ptr %arrayidx4, align 1
  %7 = add i8 %6, -48
  %8 = icmp ult i8 %7, 10
  br i1 %8, label %if.then6, label %return

if.then6:                                         ; preds = %land.lhs.true3
  %inc7 = add nuw i64 %5, 1
  store i64 %inc7, ptr %pos, align 8
  %9 = load i8, ptr %arrayidx4, align 1
  %conv9 = sext i8 %9 to i32
  %sub10 = add nsw i32 %conv9, -48
  %10 = load i32, ptr %result, align 4
  %mul = mul nsw i32 %10, 10
  %add = add nsw i32 %sub10, %mul
  store i32 %add, ptr %result, align 4
  br label %return

return:                                           ; preds = %entry, %land.lhs.true, %if.then, %land.lhs.true3, %if.then6
  %retval.0 = phi i1 [ true, %if.then6 ], [ true, %land.lhs.true3 ], [ true, %if.then ], [ false, %land.lhs.true ], [ false, %entry ]
  ret i1 %retval.0
}